target datalayout = "e-m:e-p270:32:32-p271:32:32-p272:64:64-i64:64-i128:128-f80:128-n8:16:32:64-S128"
target triple = "x86_64-pc-linux-gnu"

%struct._zval_struct = type { %union._zend_value, %union.anon.9, %union.anon.12 }
%union._zend_value = type { i64 }
%union.anon.9 = type { i32 }
%union.anon.12 = type { i32 }
%struct._zend_refcounted_h = type { i32, %union.anon.0 }
%union.anon.0 = type { i32 }
%struct.reflection_object = type { %struct._zval_struct, ptr, ptr, i32, %struct._zend_object }
%struct._zend_object = type { %struct._zend_refcounted_h, i32, i32, ptr, ptr, ptr, [1 x %struct._zval_struct] }
%struct._zend_execute_data = type { ptr, ptr, ptr, ptr, %struct._zval_struct, ptr, ptr, ptr, ptr }
%struct._zend_generator = type { %struct._zend_object, ptr, ptr, %struct._zval_struct, %struct._zval_struct, %struct._zval_struct, ptr, i64, %struct._zval_struct, %struct._zend_generator_node, %struct._zend_execute_data, ptr, i8 }
%struct._zend_generator_node = type { ptr, i32, %union.anon.14, %union.anon.15 }
%union.anon.14 = type { ptr }
%union.anon.15 = type { ptr }

; Function Attrs: inlinehint nounwind uwtable
define internal ptr @reflection_object_from_obj(ptr noundef %0) #3 {
  %2 = alloca ptr, align 8
  store ptr %0, ptr %2, align 8, !tbaa !39
  %3 = load ptr, ptr %2, align 8, !tbaa !39
  %4 = getelementptr inbounds i8, ptr %3, i64 -40
  ret ptr %4
}

; Function Attrs: nounwind uwtable
define hidden void @zim_ReflectionGenerator_isClosed(ptr noundef %0, ptr noundef %1) #0 {
  %3 = alloca ptr, align 8
  %4 = alloca ptr, align 8
  %5 = alloca ptr, align 8
  %6 = alloca ptr, align 8
  %7 = alloca i32, align 4
  store ptr %0, ptr %3, align 8, !tbaa !47
  store ptr %1, ptr %4, align 8, !tbaa !9
  call void @llvm.lifetime.start.p0(i64 8, ptr %5) #14
  %8 = load ptr, ptr %3, align 8, !tbaa !47
  %9 = getelementptr inbounds nuw %struct._zend_execute_data, ptr %8, i32 0, i32 4
  %10 = getelementptr inbounds nuw %struct._zval_struct, ptr %9, i32 0, i32 0
  %11 = load ptr, ptr %10, align 8, !tbaa !29
  %12 = call ptr @reflection_object_from_obj(ptr noundef %11)
  %13 = getelementptr inbounds nuw %struct.reflection_object, ptr %12, i32 0, i32 0
  %14 = getelementptr inbounds nuw %struct._zval_struct, ptr %13, i32 0, i32 0
  %15 = load ptr, ptr %14, align 8, !tbaa !29
  store ptr %15, ptr %5, align 8, !tbaa !162
  call void @llvm.lifetime.start.p0(i64 8, ptr %6) #14
  %16 = load ptr, ptr %5, align 8, !tbaa !162
  %17 = getelementptr inbounds nuw %struct._zend_generator, ptr %16, i32 0, i32 1
  %18 = load ptr, ptr %17, align 8, !tbaa !165
  store ptr %18, ptr %6, align 8, !tbaa !47
  br label %19

19:                                               ; preds = %2
  %20 = load ptr, ptr %3, align 8, !tbaa !47
  %21 = getelementptr inbounds nuw %struct._zend_execute_data, ptr %20, i32 0, i32 4
  %22 = getelementptr inbounds nuw %struct._zval_struct, ptr %21, i32 0, i32 2
  %23 = load i32, ptr %22, align 4, !tbaa !29
  %24 = icmp ne i32 %23, 0
  %25 = xor i1 %24, true
  %26 = xor i1 %25, true
  %27 = zext i1 %26 to i32
  %28 = sext i32 %27 to i64
  %29 = call i64 @llvm.expect.i64(i64 %28, i64 0)
  %30 = icmp ne i64 %29, 0
  br i1 %30, label %31, label %32

31:                                               ; preds = %19
  call void @zend_wrong_parameters_none_error()
  store i32 1, ptr %7, align 4
  br label %46

32:                                               ; preds = %19
  br label %33

33:                                               ; preds = %32
  br label %34

34:                                               ; preds = %33
  br label %35

35:                                               ; preds = %34
  br label %36

36:                                               ; preds = %35
  %37 = load ptr, ptr %6, align 8, !tbaa !47
  %38 = icmp eq ptr %37, null
  %39 = select i1 %38, i32 3, i32 2
  %40 = load ptr, ptr %4, align 8, !tbaa !9
  %41 = getelementptr inbounds nuw %struct._zval_struct, ptr %40, i32 0, i32 1
  store i32 %39, ptr %41, align 8, !tbaa !29
  br label %42

42:                                               ; preds = %36
  br label %43

43:                                               ; preds = %42
  store i32 1, ptr %7, align 4
  br label %46

44:                                               ; No predecessors!
  br label %45

45:                                               ; preds = %44
  store i32 0, ptr %7, align 4
  br label %46

46:                                               ; preds = %45, %43, %31
  call void @llvm.lifetime.end.p0(i64 8, ptr %6) #14
  call void @llvm.lifetime.end.p0(i64 8, ptr %5) #14
  %47 = load i32, ptr %7, align 4
  switch i32 %47, label %49 [
    i32 0, label %48
    i32 1, label %48
  ]

48:                                               ; preds = %46, %46
  ret void

49:                                               ; preds = %46
  unreachable
}