; Function Attrs: nounwind uwtable
define hidden void @zim_ReflectionGenerator_isClosed(ptr noundef readonly captures(none) %0, ptr noundef writeonly captures(none) %1) #0 {
  %3 = getelementptr inbounds nuw i8, ptr %0, i64 44
  %4 = load i32, ptr %3, align 4, !tbaa !26
  %.not = icmp eq i32 %4, 0
  br i1 %.not, label %6, label %5, !prof !70

5:                                                ; preds = %2
  tail call void @zend_wrong_parameters_none_error() #13
  br label %16

6:                                                ; preds = %2
  %7 = getelementptr inbounds nuw i8, ptr %0, i64 32
  %8 = load ptr, ptr %7, align 8, !tbaa !26
  %9 = getelementptr inbounds i8, ptr %8, i64 -40
  %10 = load ptr, ptr %9, align 8, !tbaa !26
  %11 = getelementptr inbounds nuw i8, ptr %10, i64 56
  %12 = load ptr, ptr %11, align 8, !tbaa !158
  %13 = icmp eq ptr %12, null
  %14 = select i1 %13, i32 3, i32 2
  %15 = getelementptr inbounds nuw i8, ptr %1, i64 8
  store i32 %14, ptr %15, align 8, !tbaa !26
  br label %16

16:                                               ; preds = %6, %5
  ret void
}